target datalayout = "e-m:e-p270:32:32-p271:32:32-p272:64:64-i64:64-i128:128-f80:128-n8:16:32:64-S128"
target triple = "x86_64-pc-linux-gnu"

@.str.12 = private unnamed_addr constant [6 x i8] c"rdb.c\00", align 1
@.str.23 = private unnamed_addr constant [10 x i8] c"len != -1\00", align 1

; Function Attrs: nounwind uwtable
define dso_local i64 @rdbSavedObjectLen(ptr noundef %0, ptr noundef %1, i32 noundef %2) #0 {
  %4 = alloca ptr, align 8
  %5 = alloca ptr, align 8
  %6 = alloca i32, align 4
  %7 = alloca i64, align 8
  store ptr %0, ptr %4, align 8, !tbaa !76
  store ptr %1, ptr %5, align 8, !tbaa !76
  store i32 %2, ptr %6, align 4, !tbaa !5
  call void @llvm.lifetime.start.p0(i64 8, ptr %7) #15
  %8 = load ptr, ptr %4, align 8, !tbaa !76
  %9 = load ptr, ptr %5, align 8, !tbaa !76
  %10 = load i32, ptr %6, align 4, !tbaa !5
  %11 = call i64 @rdbSaveObject(ptr noundef null, ptr noundef %8, ptr noundef %9, i32 noundef %10)
  store i64 %11, ptr %7, align 8, !tbaa !56
  %12 = load i64, ptr %7, align 8, !tbaa !56
  %13 = icmp ne i64 %12, -1
  %14 = xor i1 %13, true
  %15 = xor i1 %14, true
  %16 = zext i1 %15 to i32
  %17 = sext i32 %16 to i64
  %18 = call i64 @llvm.expect.i64(i64 %17, i64 1)
  %19 = icmp ne i64 %18, 0
  br i1 %19, label %20, label %21

20:                                               ; preds = %3
  br label %24

21:                                               ; preds = %3
  %22 = load ptr, ptr %4, align 8, !tbaa !76
  call void @_serverAssertWithInfo(ptr noundef null, ptr noundef %22, ptr noundef @.str.23, ptr noundef @.str.12, i32 noundef 1188)
  call void @abort() #16
  unreachable

23:                                               ; No predecessors!
  br label %24

24:                                               ; preds = %23, %20
  %25 = load i64, ptr %7, align 8, !tbaa !56
  call void @llvm.lifetime.end.p0(i64 8, ptr %7) #15
  ret i64 %25
}