; Function Attrs: nounwind uwtable
define dso_local range(i64 0, -1) i64 @rdbSavedObjectLen(ptr noundef %0, ptr noundef %1, i32 noundef %2) local_unnamed_addr #0 {
  %4 = tail call i64 @rdbSaveObject(ptr noundef null, ptr noundef %0, ptr noundef %1, i32 noundef %2)
  %.not = icmp eq i64 %4, -1
  br i1 %.not, label %5, label %6, !prof !146

5:                                                ; preds = %3
  tail call void @_serverAssertWithInfo(ptr noundef null, ptr noundef %0, ptr noundef nonnull @.str.23, ptr noundef nonnull @.str.12, i32 noundef 1188) #23
  tail call void @abort() #26
  unreachable

6:                                                ; preds = %3
  ret i64 %4
}